target datalayout = "e-m:e-p270:32:32-p271:32:32-p272:64:64-i64:64-i128:128-f80:128-n8:16:32:64-S128"
target triple = "x86_64-pc-linux-gnu"

@.str.2 = private unnamed_addr constant [4 x i8] c"pub\00", align 1
@.str.5 = private unnamed_addr constant [5 x i8] c"seed\00", align 1
@.str.6 = private unnamed_addr constant [5 x i8] c"priv\00", align 1
@.str.9 = private unnamed_addr constant [5 x i8] c"bits\00", align 1
@.str.10 = private unnamed_addr constant [14 x i8] c"security-bits\00", align 1
@.str.11 = private unnamed_addr constant [9 x i8] c"max-size\00", align 1
@.str.12 = private unnamed_addr constant [17 x i8] c"mandatory-digest\00", align 1
@.str.13 = private unnamed_addr constant [1 x i8] zeroinitializer, align 1

; Function Attrs: nounwind uwtable
define internal i32 @ml_dsa_get_params(ptr noundef %0, ptr noundef %1) #0 {
  %3 = alloca i32, align 4
  %4 = alloca ptr, align 8
  %5 = alloca ptr, align 8
  %6 = alloca ptr, align 8
  %7 = alloca ptr, align 8
  %8 = alloca ptr, align 8
  %9 = alloca ptr, align 8
  %10 = alloca ptr, align 8
  %11 = alloca i32, align 4
  store ptr %0, ptr %4, align 8, !tbaa !3
  store ptr %1, ptr %5, align 8, !tbaa !11
  call void @llvm.lifetime.start.p0(i64 8, ptr %6) #5
  %12 = load ptr, ptr %4, align 8, !tbaa !3
  store ptr %12, ptr %6, align 8, !tbaa !9
  call void @llvm.lifetime.start.p0(i64 8, ptr %7) #5
  call void @llvm.lifetime.start.p0(i64 8, ptr %8) #5
  call void @llvm.lifetime.start.p0(i64 8, ptr %9) #5
  call void @llvm.lifetime.start.p0(i64 8, ptr %10) #5
  %13 = load ptr, ptr %5, align 8, !tbaa !11
  %14 = call ptr @OSSL_PARAM_locate(ptr noundef %13, ptr noundef @.str.9)
  store ptr %14, ptr %7, align 8, !tbaa !11
  %15 = icmp ne ptr %14, null
  br i1 %15, label %16, label %25

16:                                               ; preds = %2
  %17 = load ptr, ptr %7, align 8, !tbaa !11
  %18 = load ptr, ptr %6, align 8, !tbaa !9
  %19 = call i64 @ossl_ml_dsa_key_get_pub_len(ptr noundef %18)
  %20 = mul i64 8, %19
  %21 = trunc i64 %20 to i32
  %22 = call i32 @OSSL_PARAM_set_int(ptr noundef %17, i32 noundef %21)
  %23 = icmp ne i32 %22, 0
  br i1 %23, label %25, label %24

24:                                               ; preds = %16
  store i32 0, ptr %3, align 4
  store i32 1, ptr %11, align 4
  br label %110

25:                                               ; preds = %16, %2
  %26 = load ptr, ptr %5, align 8, !tbaa !11
  %27 = call ptr @OSSL_PARAM_locate(ptr noundef %26, ptr noundef @.str.10)
  store ptr %27, ptr %7, align 8, !tbaa !11
  %28 = icmp ne ptr %27, null
  br i1 %28, label %29, label %38

29:                                               ; preds = %25
  %30 = load ptr, ptr %7, align 8, !tbaa !11
  %31 = load ptr, ptr %6, align 8, !tbaa !9
  %32 = call i64 @ossl_ml_dsa_key_get_collision_strength_bits(ptr noundef %31)
  %33 = mul i64 8, %32
  %34 = trunc i64 %33 to i32
  %35 = call i32 @OSSL_PARAM_set_int(ptr noundef %30, i32 noundef %34)
  %36 = icmp ne i32 %35, 0
  br i1 %36, label %38, label %37

37:                                               ; preds = %29
  store i32 0, ptr %3, align 4
  store i32 1, ptr %11, align 4
  br label %110

38:                                               ; preds = %29, %25
  %39 = load ptr, ptr %5, align 8, !tbaa !11
  %40 = call ptr @OSSL_PARAM_locate(ptr noundef %39, ptr noundef @.str.11)
  store ptr %40, ptr %7, align 8, !tbaa !11
  %41 = icmp ne ptr %40, null
  br i1 %41, label %42, label %50

42:                                               ; preds = %38
  %43 = load ptr, ptr %7, align 8, !tbaa !11
  %44 = load ptr, ptr %6, align 8, !tbaa !9
  %45 = call i64 @ossl_ml_dsa_key_get_sig_len(ptr noundef %44)
  %46 = trunc i64 %45 to i32
  %47 = call i32 @OSSL_PARAM_set_int(ptr noundef %43, i32 noundef %46)
  %48 = icmp ne i32 %47, 0
  br i1 %48, label %50, label %49

49:                                               ; preds = %42
  store i32 0, ptr %3, align 4
  store i32 1, ptr %11, align 4
  br label %110

50:                                               ; preds = %42, %38
  %51 = load ptr, ptr %6, align 8, !tbaa !9
  %52 = call ptr @ossl_ml_dsa_key_get_pub(ptr noundef %51)
  store ptr %52, ptr %8, align 8, !tbaa !13
  %53 = load ptr, ptr %6, align 8, !tbaa !9
  %54 = call ptr @ossl_ml_dsa_key_get_priv(ptr noundef %53)
  store ptr %54, ptr %9, align 8, !tbaa !13
  %55 = load ptr, ptr %6, align 8, !tbaa !9
  %56 = call ptr @ossl_ml_dsa_key_get_seed(ptr noundef %55)
  store ptr %56, ptr %10, align 8, !tbaa !13
  %57 = load ptr, ptr %10, align 8, !tbaa !13
  %58 = icmp ne ptr %57, null
  br i1 %58, label %59, label %69

59:                                               ; preds = %50
  %60 = load ptr, ptr %5, align 8, !tbaa !11
  %61 = call ptr @OSSL_PARAM_locate(ptr noundef %60, ptr noundef @.str.5)
  store ptr %61, ptr %7, align 8, !tbaa !11
  %62 = icmp ne ptr %61, null
  br i1 %62, label %63, label %69

63:                                               ; preds = %59
  %64 = load ptr, ptr %7, align 8, !tbaa !11
  %65 = load ptr, ptr %10, align 8, !tbaa !13
  %66 = call i32 @OSSL_PARAM_set_octet_string(ptr noundef %64, ptr noundef %65, i64 noundef 32)
  %67 = icmp ne i32 %66, 0
  br i1 %67, label %69, label %68

68:                                               ; preds = %63
  store i32 0, ptr %3, align 4
  store i32 1, ptr %11, align 4
  br label %110

69:                                               ; preds = %63, %59, %50
  %70 = load ptr, ptr %9, align 8, !tbaa !13
  %71 = icmp ne ptr %70, null
  br i1 %71, label %72, label %84

72:                                               ; preds = %69
  %73 = load ptr, ptr %5, align 8, !tbaa !11
  %74 = call ptr @OSSL_PARAM_locate(ptr noundef %73, ptr noundef @.str.6)
  store ptr %74, ptr %7, align 8, !tbaa !11
  %75 = icmp ne ptr %74, null
  br i1 %75, label %76, label %84

76:                                               ; preds = %72
  %77 = load ptr, ptr %7, align 8, !tbaa !11
  %78 = load ptr, ptr %9, align 8, !tbaa !13
  %79 = load ptr, ptr %6, align 8, !tbaa !9
  %80 = call i64 @ossl_ml_dsa_key_get_priv_len(ptr noundef %79)
  %81 = call i32 @OSSL_PARAM_set_octet_string(ptr noundef %77, ptr noundef %78, i64 noundef %80)
  %82 = icmp ne i32 %81, 0
  br i1 %82, label %84, label %83

83:                                               ; preds = %76
  store i32 0, ptr %3, align 4
  store i32 1, ptr %11, align 4
  br label %110

84:                                               ; preds = %76, %72, %69
  %85 = load ptr, ptr %8, align 8, !tbaa !13
  %86 = icmp ne ptr %85, null
  br i1 %86, label %87, label %99

87:                                               ; preds = %84
  %88 = load ptr, ptr %5, align 8, !tbaa !11
  %89 = call ptr @OSSL_PARAM_locate(ptr noundef %88, ptr noundef @.str.2)
  store ptr %89, ptr %7, align 8, !tbaa !11
  %90 = icmp ne ptr %89, null
  br i1 %90, label %91, label %99

91:                                               ; preds = %87
  %92 = load ptr, ptr %7, align 8, !tbaa !11
  %93 = load ptr, ptr %8, align 8, !tbaa !13
  %94 = load ptr, ptr %6, align 8, !tbaa !9
  %95 = call i64 @ossl_ml_dsa_key_get_pub_len(ptr noundef %94)
  %96 = call i32 @OSSL_PARAM_set_octet_string(ptr noundef %92, ptr noundef %93, i64 noundef %95)
  %97 = icmp ne i32 %96, 0
  br i1 %97, label %99, label %98

98:                                               ; preds = %91
  store i32 0, ptr %3, align 4
  store i32 1, ptr %11, align 4
  br label %110

99:                                               ; preds = %91, %87, %84
  %100 = load ptr, ptr %5, align 8, !tbaa !11
  %101 = call ptr @OSSL_PARAM_locate(ptr noundef %100, ptr noundef @.str.12)
  store ptr %101, ptr %7, align 8, !tbaa !11
  %102 = load ptr, ptr %7, align 8, !tbaa !11
  %103 = icmp ne ptr %102, null
  br i1 %103, label %104, label %109

104:                                              ; preds = %99
  %105 = load ptr, ptr %7, align 8, !tbaa !11
  %106 = call i32 @OSSL_PARAM_set_utf8_string(ptr noundef %105, ptr noundef @.str.13)
  %107 = icmp ne i32 %106, 0
  br i1 %107, label %109, label %108

108:                                              ; preds = %104
  store i32 0, ptr %3, align 4
  store i32 1, ptr %11, align 4
  br label %110

109:                                              ; preds = %104, %99
  store i32 1, ptr %3, align 4
  store i32 1, ptr %11, align 4
  br label %110

110:                                              ; preds = %109, %108, %98, %83, %68, %49, %37, %24
  call void @llvm.lifetime.end.p0(i64 8, ptr %10) #5
  call void @llvm.lifetime.end.p0(i64 8, ptr %9) #5
  call void @llvm.lifetime.end.p0(i64 8, ptr %8) #5
  call void @llvm.lifetime.end.p0(i64 8, ptr %7) #5
  call void @llvm.lifetime.end.p0(i64 8, ptr %6) #5
  %111 = load i32, ptr %3, align 4
  ret i32 %111
}