; Function Attrs: nounwind uwtable
define internal range(i32 0, 2) i32 @ml_dsa_get_params(ptr noundef %0, ptr noundef %1) #0 {
  %3 = tail call ptr @OSSL_PARAM_locate(ptr noundef %1, ptr noundef nonnull @.str.9) #6
  %.not = icmp eq ptr %3, null
  br i1 %.not, label %8, label %4

4:                                                ; preds = %2
  %5 = tail call i64 @ossl_ml_dsa_key_get_pub_len(ptr noundef %0) #6
  %.tr = trunc i64 %5 to i32
  %6 = shl i32 %.tr, 3
  %7 = tail call i32 @OSSL_PARAM_set_int(ptr noundef nonnull %3, i32 noundef %6) #6
  %.not40 = icmp eq i32 %7, 0
  br i1 %.not40, label %45, label %8

8:                                                ; preds = %4, %2
  %9 = tail call ptr @OSSL_PARAM_locate(ptr noundef %1, ptr noundef nonnull @.str.10) #6
  %.not41 = icmp eq ptr %9, null
  br i1 %.not41, label %14, label %10

10:                                               ; preds = %8
  %11 = tail call i64 @ossl_ml_dsa_key_get_collision_strength_bits(ptr noundef %0) #6
  %.tr42 = trunc i64 %11 to i32
  %12 = shl i32 %.tr42, 3
  %13 = tail call i32 @OSSL_PARAM_set_int(ptr noundef nonnull %9, i32 noundef %12) #6
  %.not43 = icmp eq i32 %13, 0
  br i1 %.not43, label %45, label %14

14:                                               ; preds = %10, %8
  %15 = tail call ptr @OSSL_PARAM_locate(ptr noundef %1, ptr noundef nonnull @.str.11) #6
  %.not44 = icmp eq ptr %15, null
  br i1 %.not44, label %20, label %16

16:                                               ; preds = %14
  %17 = tail call i64 @ossl_ml_dsa_key_get_sig_len(ptr noundef %0) #6
  %18 = trunc i64 %17 to i32
  %19 = tail call i32 @OSSL_PARAM_set_int(ptr noundef nonnull %15, i32 noundef %18) #6
  %.not45 = icmp eq i32 %19, 0
  br i1 %.not45, label %45, label %20

20:                                               ; preds = %16, %14
  %21 = tail call ptr @ossl_ml_dsa_key_get_pub(ptr noundef %0) #6
  %22 = tail call ptr @ossl_ml_dsa_key_get_priv(ptr noundef %0) #6
  %23 = tail call ptr @ossl_ml_dsa_key_get_seed(ptr noundef %0) #6
  %.not46 = icmp eq ptr %23, null
  br i1 %.not46, label %28, label %24

24:                                               ; preds = %20
  %25 = tail call ptr @OSSL_PARAM_locate(ptr noundef %1, ptr noundef nonnull @.str.5) #6
  %.not47 = icmp eq ptr %25, null
  br i1 %.not47, label %28, label %26

26:                                               ; preds = %24
  %27 = tail call i32 @OSSL_PARAM_set_octet_string(ptr noundef nonnull %25, ptr noundef nonnull %23, i64 noundef 32) #6
  %.not48 = icmp eq i32 %27, 0
  br i1 %.not48, label %45, label %28

28:                                               ; preds = %26, %24, %20
  %.not49 = icmp eq ptr %22, null
  br i1 %.not49, label %34, label %29

29:                                               ; preds = %28
  %30 = tail call ptr @OSSL_PARAM_locate(ptr noundef %1, ptr noundef nonnull @.str.6) #6
  %.not50 = icmp eq ptr %30, null
  br i1 %.not50, label %34, label %31

31:                                               ; preds = %29
  %32 = tail call i64 @ossl_ml_dsa_key_get_priv_len(ptr noundef %0) #6
  %33 = tail call i32 @OSSL_PARAM_set_octet_string(ptr noundef nonnull %30, ptr noundef nonnull %22, i64 noundef %32) #6
  %.not51 = icmp eq i32 %33, 0
  br i1 %.not51, label %45, label %34

34:                                               ; preds = %31, %29, %28
  %.not52 = icmp eq ptr %21, null
  br i1 %.not52, label %40, label %35

35:                                               ; preds = %34
  %36 = tail call ptr @OSSL_PARAM_locate(ptr noundef %1, ptr noundef nonnull @.str.2) #6
  %.not53 = icmp eq ptr %36, null
  br i1 %.not53, label %40, label %37

37:                                               ; preds = %35
  %38 = tail call i64 @ossl_ml_dsa_key_get_pub_len(ptr noundef %0) #6
  %39 = tail call i32 @OSSL_PARAM_set_octet_string(ptr noundef nonnull %36, ptr noundef nonnull %21, i64 noundef %38) #6
  %.not54 = icmp eq i32 %39, 0
  br i1 %.not54, label %45, label %40

40:                                               ; preds = %37, %35, %34
  %41 = tail call ptr @OSSL_PARAM_locate(ptr noundef %1, ptr noundef nonnull @.str.12) #6
  %.not55 = icmp eq ptr %41, null
  br i1 %.not55, label %44, label %42

42:                                               ; preds = %40
  %43 = tail call i32 @OSSL_PARAM_set_utf8_string(ptr noundef nonnull %41, ptr noundef nonnull @.str.13) #6
  %.not56 = icmp eq i32 %43, 0
  br i1 %.not56, label %45, label %44

44:                                               ; preds = %42, %40
  br label %45

45:                                               ; preds = %42, %37, %31, %26, %16, %10, %4, %44
  %.0 = phi i32 [ 1, %44 ], [ 0, %4 ], [ 0, %10 ], [ 0, %16 ], [ 0, %26 ], [ 0, %31 ], [ 0, %37 ], [ 0, %42 ]
  ret i32 %.0
}